; Function Attrs: nounwind uwtable
define noundef ptr @Io_ReadCreatePo(ptr noundef %0, ptr noundef %1) local_unnamed_addr #0 {
  %3 = tail call ptr @Abc_NtkFindNet(ptr noundef %0, ptr noundef %1) #14
  %.not = icmp eq ptr %3, null
  br i1 %.not, label %9, label %4

4:                                                ; preds = %2
  %5 = getelementptr i8, ptr %3, i64 28
  %.val = load i32, ptr %5, align 4
  %6 = icmp eq i32 %.val, 0
  br i1 %6, label %7, label %9

7:                                                ; preds = %4
  %8 = tail call i32 (ptr, ...) @printf(ptr noundef nonnull dereferenceable(1) @.str.49, ptr noundef %1)
  br label %9

9:                                                ; preds = %7, %4, %2
  %10 = tail call ptr @Abc_NtkFindOrCreateNet(ptr noundef %0, ptr noundef %1) #14
  %11 = tail call ptr @Abc_NtkCreateObj(ptr noundef %0, i32 noundef 3) #14
  tail call void @Abc_ObjAddFanin(ptr noundef %11, ptr noundef %10) #14
  ret ptr %11
}